(lp0
VA
p1
aVAA
p2
aVAAN
p3
aVAAON
p4
aVAAP
p5
aVAAPL
p6
aVAAT
p7
aVAAWW
p8
aVABAX
p9
aVABBV
p10
aVABC
p11
aVABCB
p12
aVABCD
p13
aVABCO
p14
aVABG
p15
aVABM
p16
aVABMD
p17
aVABR
p18
aVABT
p19
aVACAD
p20
aVACAS
p21
aVACAT
p22
aVACC
p23
aVACCO
p24
aVACET
p25
aVACFN
p26
aVACGL
p27
aVACHC
p28
aVACHN
p29
aVACIW
p30
aVACLS
p31
aVACM
p32
aVACN
p33
aVACOR
p34
aVACRE
p35
aVACRX
p36
aVACTG
p37
aVACTL
p38
aVACUR
p39
aVACV
p40
aVACXM
p41
aVADBE
p42
aVADC
p43
aVADES
p44
aVADI
p45
aVADM
p46
aVADP
p47
aVADPT
p48
aVADS
p49
aVADSK
p50
aVADTN
p51
aVADUS
p52
aVAE
p53
aVAEE
p54
aVAEGN
p55
aVAEIS
p56
aVAEL
p57
aVAEO
p58
aVAEP
p59
aVAEPI
p60
aVAES
p61
aVAET
p62
aVAF
p63
aVAFAM
p64
aVAFFY
p65
aVAFG
p66
aVAFL
p67
aVAFSI
p68
aVAG
p69
aVAGCO
p70
aVAGII
p71
aVAGM
p72
aVAGN
p73
aVAGNC
p74
aVAGO
p75
aVAGX
p76
aVAGYS
p77
aVAHC
p78
aVAHH
p79
aVAHL
p80
aVAHT
p81
aVAI
p82
aVAIG
p83
aVAIMC
p84
aVAIN
p85
aVAINV
p86
aVAIQ
p87
aVAIR
p88
aVAIRM
p89
aVAIT
p90
aVAIV
p91
aVAIZ
p92
aVAJG
p93
aVAKAM
p94
aVAKR
p95
aVAKRX
p96
aVAKS
p97
aVAL
p98
aVALB
p99
aVALCO
p100
aVALD
p101
aVALE
p102
aVALEX
p103
aVALG
p104
aVALGN
p105
aVALGT
p106
aVALIM
p107
aVALJ
p108
aVALK
p109
aVALKS
p110
aVALL
p111
aVALNY
p112
aVALOG
p113
aVALR
p114
aVALSK
p115
aVALSN
p116
aVALV
p117
aVALX
p118
aVALXN
p119
aVAM
p120
aVAMAG
p121
aVAMAT
p122
aVAMBA
p123
aVAMBC
p124
aVAMCC
p125
aVAMCX
p126
aVAMD
p127
aVAME
p128
aVAMED
p129
aVAMG
p130
aVAMGN
p131
aVAMKR
p132
aVAMN
p133
aVAMNB
p134
aVAMP
p135
aVAMPE
p136
aVAMPH
p137
aVAMRC
p138
aVAMRI
p139
aVAMRS
p140
aVAMSC
p141
aVAMSF
p142
aVAMSG
p143
aVAMSWA
p144
aVAMT
p145
aVAMTD
p146
aVAMWD
p147
aVAMZN
p148
aVAN
p149
aVANAT
p150
aVANCX
p151
aVANDE
p152
aVANF
p153
aVANGI
p154
aVANGO
p155
aVANH
p156
aVANIK
p157
aVANSS
p158
aVANTH
p159
aVANTM
p160
aVAOI
p161
aVAON
p162
aVAOS
p163
aVAOSL
p164
aVAP
p165
aVAPA
p166
aVAPAM
p167
aVAPC
p168
aVAPD
p169
aVAPEI
p170
aVAPH
p171
aVAPOG
p172
aVAPOL
p173
aVARAY
p174
aVARC
p175
aVARCC
p176
aVARE
p177
aVAREX
p178
aVARI
p179
aVARIA
p180
aVARII
p181
aVARL
p182
aVARNA
p183
aVARNC
p184
aVAROC
p185
aVAROW
p186
aVARQL
p187
aVARR
p188
aVARRS
p189
aVARRY
p190
aVARTNA
p191
aVARW
p192
aVARYX
p193
aVASB
p194
aVASCMA
p195
aVASGN
p196
aVASH
p197
aVASNA
p198
aVASTE
p199
aVASTI
p200
aVASYS
p201
aVAT
p202
aVATEC
p203
aVATHN
p204
aVATI
p205
aVATLO
p206
aVATLS
p207
aVATNI
p208
aVATO
p209
aVATR
p210
aVATRC
p211
aVATRI
p212
aVATRO
p213
aVATRS
p214
aVATSG
p215
aVATU
p216
aVATVI
p217
aVATW
p218
aVAUBN
p219
aVAUMN
p220
aVAV
p221
aVAVA
p222
aVAVAV
p223
aVAVB
p224
aVAVD
p225
aVAVEO
p226
aVAVGO
p227
aVAVHI
p228
aVAVID
p229
aVAVNW
p230
aVAVP
p231
aVAVT
p232
aVAVX
p233
aVAVY
p234
aVAWH
p235
aVAWI
p236
aVAWK
p237
aVAWR
p238
aVAXAS
p239
aVAXDX
p240
aVAXE
p241
aVAXL
p242
aVAXP
p243
aVAXR
p244
aVAXS
p245
aVAXTI
p246
aVAYI
p247
aVAYR
p248
aVAZO
p249
aVAZPN
p250
aVAZZ
p251
aVB
p252
aVBA
p253
aVBABY
p254
aVBAC
p255
aVBAH
p256
aVBANC
p257
aVBANF
p258
aVBANR
p259
aVBAS
p260
aVBAX
p261
aVBBBY
p262
aVBBG
p263
aVBBGI
p264
aVBBOX
p265
aVBBRG
p266
aVBBSI
p267
aVBBT
p268
aVBBW
p269
aVBBX
p270
aVBBY
p271
aVBC
p272
aVBCC
p273
aVBCEI
p274
aVBCO
p275
aVBCOR
p276
aVBCOV
p277
aVBCPC
p278
aVBCR
p279
aVBCRX
p280
aVBDC
p281
aVBDE
p282
aVBDGE
p283
aVBDN
p284
aVBDSI
p285
aVBDX
p286
aVBEAT
p287
aVBEAV
p288
aVBEBE
p289
aVBECN
p290
aVBEL
p291
aVBELFB
p292
aVBEN
p293
aVBERY
p294
aVBF.B
p295
aVBFAM
p296
aVBFIN
p297
aVBFS
p298
aVBG
p299
aVBGC
p300
aVBGCP
p301
aVBGFV
p302
aVBGG
p303
aVBGMD
p304
aVBGS
p305
aVBH
p306
aVBHB
p307
aVBHE
p308
aVBHI
p309
aVBHLB
p310
aVBID
p311
aVBIDU
p312
aVBIG
p313
aVBIIB
p314
aVBIO
p315
aVBIOL
p316
aVBIOS
p317
aVBJRI
p318
aVBK
p319
aVBKCC
p320
aVBKD
p321
aVBKE
p322
aVBKH
p323
aVBKMU
p324
aVBKS
p325
aVBKU
p326
aVBLDR
p327
aVBLK
p328
aVBLKB
p329
aVBLL
p330
aVBLMN
p331
aVBLX
p332
aVBMI
p333
aVBMRC
p334
aVBMRN
p335
aVBMS
p336
aVBMTC
p337
aVBMY
p338
aVBNCL
p339
aVBNCN
p340
aVBOBE
p341
aVBOFI
p342
aVBOH
p343
aVBOKF
p344
aVBONT
p345
aVBOOM
p346
aVBOX
p347
aVBPFH
p348
aVBPI
p349
aVBPOP
p350
aVBR
p351
aVBRC
p352
aVBRCD
p353
aVBREW
p354
aVBRK.B
p355
aVBRKL
p356
aVBRKR
p357
aVBRKS
p358
aVBRO
p359
aVBRS
p360
aVBRSS
p361
aVBSET
p362
aVBSFT
p363
aVBSRR
p364
aVBSTC
p365
aVBSX
p366
aVBTX
p367
aVBUD
p368
aVBUSE
p369
aVBV
p370
aVBVX
p371
aVBW
p372
aVBWA
p373
aVBWEN
p374
aVBWINB
p375
aVBWLD
p376
aVBWXT
p377
aVBXC
p378
aVBXP
p379
aVBXS
p380
aVBYD
p381
aVBZH
p382
aVC
p383
aVCA
p384
aVCAAS
p385
aVCAB
p386
aVCAC
p387
aVCACB
p388
aVCACC
p389
aVCACH
p390
aVCACI
p391
aVCAE
p392
aVCAG
p393
aVCAH
p394
aVCAKE
p395
aVCAL
p396
aVCALD
p397
aVCALL
p398
aVCALM
p399
aVCALX
p400
aVCAMP
p401
aVCAR
p402
aVCARB
p403
aVCAS
p404
aVCASC
p405
aVCASH
p406
aVCASS
p407
aVCASY
p408
aVCAT
p409
aVCATM
p410
aVCATO
p411
aVCATY
p412
aVCAVM
p413
aVCB
p414
aVCBAK
p415
aVCBB
p416
aVCBF
p417
aVCBG
p418
aVCBI
p419
aVCBK
p420
aVCBL
p421
aVCBLI
p422
aVCBM
p423
aVCBOE
p424
aVCBR
p425
aVCBRL
p426
aVCBS
p427
aVCBSH
p428
aVCBT
p429
aVCBU
p430
aVCBZ
p431
aVCC
p432
aVCCBG
p433
aVCCC
p434
aVCCE
p435
aVCCF
p436
aVCCI
p437
aVCCK
p438
aVCCL
p439
aVCCMP
p440
aVCCNE
p441
aVCCO
p442
aVCCOI
p443
aVCCRN
p444
aVCCU
p445
aVCCXI
p446
aVCDE
p447
aVCDI
p448
aVCDNS
p449
aVCDR
p450
aVCDXS
p451
aVCDZI
p452
aVCE
p453
aVCEB
p454
aVCECE
p455
aVCECO
p456
aVCELG
p457
aVCEM
p458
aVCEMP
p459
aVCENTA
p460
aVCENX
p461
aVCERN
p462
aVCERS
p463
aVCETV
p464
aVCEVA
p465
aVCF
p466
aVCFFI
p467
aVCFFN
p468
aVCFI
p469
aVCFNB
p470
aVCFNL
p471
aVCFR
p472
aVCFX
p473
aVCGA
p474
aVCGI
p475
aVCGNX
p476
aVCHCO
p477
aVCHD
p478
aVCHDN
p479
aVCHE
p480
aVCHEF
p481
aVCHFC
p482
aVCHFN
p483
aVCHH
p484
aVCHK
p485
aVCHKE
p486
aVCHKP
p487
aVCHMG
p488
aVCHMT
p489
aVCHRS
p490
aVCHRW
p491
aVCHS
p492
aVCHSP
p493
aVCHTR
p494
aVCHUY
p495
aVCI
p496
aVCIA
p497
aVCIE
p498
aVCIEN
p499
aVCIM
p500
aVCINF
p501
aVCIR
p502
aVCIT
p503
aVCIX
p504
aVCIZN
p505
aVCKEC
p506
aVCKH
p507
aVCL
p508
aVCLB
p509
aVCLC
p510
aVCLD
p511
aVCLDT
p512
aVCLDX
p513
aVCLF
p514
aVCLGX
p515
aVCLH
p516
aVCLI
p517
aVCLMS
p518
aVCLNE
p519
aVCLNY
p520
aVCLR
p521
aVCLUB
p522
aVCLVS
p523
aVCLW
p524
aVCLX
p525
aVCMA
p526
aVCMC
p527
aVCMCO
p528
aVCMCSA
p529
aVCME
p530
aVCMG
p531
aVCMI
p532
aVCMLS
p533
aVCMN
p534
aVCMO
p535
aVCMP
p536
aVCMPR
p537
aVCMRX
p538
aVCMS
p539
aVCMTL
p540
aVCNA
p541
aVCNBKA
p542
aVCNC
p543
aVCNET
p544
aVCNK
p545
aVCNMD
p546
aVCNO
p547
aVCNOB
p548
aVCNP
p549
aVCNS
p550
aVCNSL
p551
aVCNX
p552
aVCOBZ
p553
aVCODI
p554
aVCOF
p555
aVCOG
p556
aVCOGT
p557
aVCOH
p558
aVCOHR
p559
aVCOHU
p560
aVCOKE
p561
aVCOL
p562
aVCOLB
p563
aVCOLM
p564
aVCONE
p565
aVCONN
p566
aVCOO
p567
aVCOP
p568
aVCOR
p569
aVCORE
p570
aVCORP
p571
aVCORT
p572
aVCOST
p573
aVCOWN
p574
aVCPA
p575
aVCPB
p576
aVCPE
p577
aVCPF
p578
aVCPK
p579
aVCPLA
p580
aVCPN
p581
aVCPRT
p582
aVCPSI
p583
aVCPSL
p584
aVCPSS
p585
aVCPST
p586
aVCPT
p587
aVCR
p588
aVCRAI
p589
aVCRAY
p590
aVCRD.B
p591
aVCRED
p592
aVCREE
p593
aVCRI
p594
aVCRIS
p595
aVCRK
p596
aVCRL
p597
aVCRM
p598
aVCRMT
p599
aVCROX
p600
aVCRR
p601
aVCRS
p602
aVCRUS
p603
aVCRVL
p604
aVCRY
p605
aVCRZO
p606
aVCSA
p607
aVCSBK
p608
aVCSC
p609
aVCSCO
p610
aVCSFL
p611
aVCSGP
p612
aVCSGS
p613
aVCSII
p614
aVCSL
p615
aVCSOD
p616
aVCSS
p617
aVCST
p618
aVCSTR
p619
aVCSU
p620
aVCSV
p621
aVCSWC
p622
aVCSX
p623
aVCTAS
p624
aVCTB
p625
aVCTBI
p626
aVCTBK
p627
aVCTIC
p628
aVCTL
p629
aVCTO
p630
aVCTR
p631
aVCTRN
p632
aVCTS
p633
aVCTSH
p634
aVCTV
p635
aVCTWS
p636
aVCTX
p637
aVCTXS
p638
aVCUB
p639
aVCUBE
p640
aVCUBI
p641
aVCUNB
p642
aVCUTR
p643
aVCUZ
p644
aVCVA
p645
aVCVBF
p646
aVCVCO
p647
aVCVG
p648
aVCVGI
p649
aVCVGW
p650
aVCVI
p651
aVCVLT
p652
aVCVO
p653
aVCVS
p654
aVCVTI
p655
aVCVX
p656
aVCW
p657
aVCWCO
p658
aVCWEI
p659
aVCWH
p660
aVCWST
p661
aVCWT
p662
aVCXO
p663
aVCXW
p664
aVCY
p665
aVCYH
p666
aVCYNO
p667
aVCYS
p668
aVCYTK
p669
aVCYTX
p670
aVCZNC
p671
aVCZR
p672
aVD
p673
aVDAKT
p674
aVDAL
p675
aVDAN
p676
aVDAR
p677
aVDATA
p678
aVDBD
p679
aVDCI
p680
aVDCO
p681
aVDCOM
p682
aVDCT
p683
aVDCTH
p684
aVDD
p685
aVDDD
p686
aVDDE
p687
aVDDR
p688
aVDDS
p689
aVDE
p690
aVDECK
p691
aVDEI
p692
aVDEL
p693
aVDENN
p694
aVDEPO
p695
aVDEST
p696
aVDF
p697
aVDFRG
p698
aVDFS
p699
aVDFT
p700
aVDG
p701
aVDGAS
p702
aVDGI
p703
aVDGICA
p704
aVDGII
p705
aVDGX
p706
aVDHI
p707
aVDHIL
p708
aVDHR
p709
aVDHT
p710
aVDHX
p711
aVDIN
p712
aVDIOD
p713
aVDIS
p714
aVDISCA
p715
aVDISCK
p716
aVDISH
p717
aVDJCO
p718
aVDK
p719
aVDKS
p720
aVDLA
p721
aVDLB
p722
aVDLPH
p723
aVDLR
p724
aVDLTR
p725
aVDLX
p726
aVDM
p727
aVDMRC
p728
aVDNB
p729
aVDNKN
p730
aVDNR
p731
aVDO
p732
aVDORM
p733
aVDOV
p734
aVDOW
p735
aVDOX
p736
aVDPS
p737
aVDPZ
p738
aVDRE
p739
aVDRH
p740
aVDRI
p741
aVDRQ
p742
aVDRRX
p743
aVDSCI
p744
aVDSL
p745
aVDSPG
p746
aVDST
p747
aVDSW
p748
aVDTE
p749
aVDTLK
p750
aVDTSI
p751
aVDTV
p752
aVDUK
p753
aVDV
p754
aVDVA
p755
aVDVAX
p756
aVDVD
p757
aVDVN
p758
aVDW
p759
aVDWSN
p760
aVDX
p761
aVDXCM
p762
aVDXLG
p763
aVDXPE
p764
aVDY
p765
aVDYN
p766
aVEA
p767
aVEARN
p768
aVEAT
p769
aVEBAY
p770
aVEBF
p771
aVEBIX
p772
aVEBS
p773
aVEBSB
p774
aVEBTC
p775
aVECHO
p776
aVECL
p777
aVECOL
p778
aVECOM
p779
aVECPG
p780
aVECYT
p781
aVED
p782
aVEDE
p783
aVEDMC
p784
aVEDR
p785
aVEE
p786
aVEEFT
p787
aVEFII
p788
aVEFSC
p789
aVEFX
p790
aVEGAN
p791
aVEGBN
p792
aVEGHT
p793
aVEGL
p794
aVEGLE
p795
aVEGN
p796
aVEGOV
p797
aVEGP
p798
aVEGT
p799
aVEGY
p800
aVEHTH
p801
aVEIG
p802
aVEIX
p803
aVEL
p804
aVELGX
p805
aVELLI
p806
aVELNK
p807
aVELON
p808
aVELS
p809
aVELY
p810
aVEMAN
p811
aVEMCI
p812
aVEME
p813
aVEMKR
p814
aVEML
p815
aVEMN
p816
aVEMR
p817
aVENDP
p818
aVENG
p819
aVENH
p820
aVENOC
p821
aVENPH
p822
aVENR
p823
aVENS
p824
aVENSG
p825
aVENT
p826
aVENTA
p827
aVENTG
p828
aVENV
p829
aVENZ
p830
aVENZN
p831
aVEOG
p832
aVEPAM
p833
aVEPAY
p834
aVEPC
p835
aVEPM
p836
aVEPR
p837
aVEPZM
p838
aVEQC
p839
aVEQIX
p840
aVEQR
p841
aVEQT
p842
aVEQY
p843
aVERA
p844
aVERIE
p845
aVERII
p846
aVES
p847
aVESE
p848
aVESGR
p849
aVESIO
p850
aVESL
p851
aVESRX
p852
aVESS
p853
aVESSA
p854
aVESSX
p855
aVESV
p856
aVETFC
p857
aVETH
p858
aVETM
p859
aVETN
p860
aVETR
p861
aVETRM
p862
aVEV
p863
aVEVC
p864
aVEVER
p865
aVEVR
p866
aVEVTC
p867
aVEW
p868
aVEWBC
p869
aVEXAC
p870
aVEXAR
p871
aVEXAS
p872
aVEXC
p873
aVEXEL
p874
aVEXLS
p875
aVEXP
p876
aVEXPD
p877
aVEXPE
p878
aVEXPO
p879
aVEXPR
p880
aVEXR
p881
aVEXTR
p882
aVEZPW
p883
aVF
p884
aVFAC
p885
aVFAF
p886
aVFALC
p887
aVFANG
p888
aVFARM
p889
aVFARO
p890
aVFAST
p891
aVFB
p892
aVFBC
p893
aVFBHS
p894
aVFBNC
p895
aVFBNK
p896
aVFBP
p897
aVFBR
p898
aVFBRC
p899
aVFC
p900
aVFCBC
p901
aVFCE.A
p902
aVFCEL
p903
aVFCF
p904
aVFCFS
p905
aVFCH
p906
aVFCN
p907
aVFCNCA
p908
aVFCSC
p909
aVFCX
p910
aVFDC
p911
aVFDEF
p912
aVFDML
p913
aVFDP
p914
aVFDS
p915
aVFDUS
p916
aVFDX
p917
aVFE
p918
aVFELE
p919
aVFET
p920
aVFF
p921
aVFFBC
p922
aVFFG
p923
aVFFIC
p924
aVFFIN
p925
aVFFIV
p926
aVFFKT
p927
aVFFNW
p928
aVFHCO
p929
aVFHN
p930
aVFIBK
p931
aVFICO
p932
aVFIF
p933
aVFII
p934
aVFINL
p935
aVFIS
p936
aVFISI
p937
aVFISV
p938
aVFITB
p939
aVFIVE
p940
aVFIX
p941
aVFIZZ
p942
aVFL
p943
aVFLDM
p944
aVFLEX
p945
aVFLIC
p946
aVFLIR
p947
aVFLO
p948
aVFLOW
p949
aVFLR
p950
aVFLS
p951
aVFLT
p952
aVFLWS
p953
aVFLXS
p954
aVFMBI
p955
aVFMC
p956
aVFN
p957
aVFNB
p958
aVFNF
p959
aVFNGN
p960
aVFNLC
p961
aVFNSR
p962
aVFOE
p963
aVFOLD
p964
aVFOR
p965
aVFORM
p966
aVFORR
p967
aVFOSL
p968
aVFPL
p969
aVFPO
p970
aVFR
p971
aVFRAN
p972
aVFRBK
p973
aVFRC
p974
aVFRED
p975
aVFRGI
p976
aVFRME
p977
aVFRO
p978
aVFRP
p979
aVFRPT
p980
aVFRT
p981
aVFSBK
p982
aVFSC
p983
aVFSLR
p984
aVFSP
p985
aVFSS
p986
aVFSTR
p987
aVFTEK
p988
aVFTI
p989
aVFTK
p990
aVFTNT
p991
aVFTR
p992
aVFUL
p993
aVFULT
p994
aVFVE
p995
aVFWRD
p996
aVFXCM
p997
aVG
p998
aVGABC
p999
aVGAIA
p1000
aVGAIN
p1001
aVGALE
p1002
aVGARS
p1003
aVGBCI
p1004
aVGBDC
p1005
aVGBL
p1006
aVGBLI
p1007
aVGBNK
p1008
aVGBX
p1009
aVGCAP
p1010
aVGCI
p1011
aVGCO
p1012
aVGD
p1013
aVGDOT
p1014
aVGE
p1015
aVGEF
p1016
aVGEN
p1017
aVGEO
p1018
aVGEOS
p1019
aVGERN
p1020
aVGES
p1021
aVGEVO
p1022
aVGFF
p1023
aVGGG
p1024
aVGGP
p1025
aVGHDX
p1026
aVGHL
p1027
aVGHM
p1028
aVGIFI
p1029
aVGIII
p1030
aVGILD
p1031
aVGIS
p1032
aVGK
p1033
aVGLAD
p1034
aVGLBL
p1035
aVGLCH
p1036
aVGLDD
p1037
aVGLF
p1038
aVGLNG
p1039
aVGLOG
p1040
aVGLPW
p1041
aVGLRE
p1042
aVGLT
p1043
aVGLUU
p1044
aVGLW
p1045
aVGM
p1046
aVGMAN
p1047
aVGME
p1048
aVGMED
p1049
aVGMET
p1050
aVGMO
p1051
aVGNC
p1052
aVGNCMA
p1053
aVGNE
p1054
aVGNK
p1055
aVGNMK
p1056
aVGNRC
p1057
aVGNTX
p1058
aVGNW
p1059
aVGOOD
p1060
aVGOOG
p1061
aVGOOGL
p1062
aVGORO
p1063
aVGOV
p1064
aVGPC
p1065
aVGPI
p1066
aVGPK
p1067
aVGPN
p1068
aVGPOR
p1069
aVGPRE
p1070
aVGPRO
p1071
aVGPS
p1072
aVGPT
p1073
aVGPX
p1074
aVGRA
p1075
aVGRC
p1076
aVGRIF
p1077
aVGRMN
p1078
aVGROW
p1079
aVGRPN
p1080
aVGS
p1081
aVGSAT
p1082
aVGSBC
p1083
aVGSIT
p1084
aVGSM
p1085
aVGSOL
p1086
aVGSS
p1087
aVGST
p1088
aVGSVC
p1089
aVGT
p1090
aVGTE
p1091
aVGTLS
p1092
aVGTN
p1093
aVGTS
p1094
aVGTXI
p1095
aVGTY
p1096
aVGUID
p1097
aVGVA
p1098
aVGVP
p1099
aVGWR
p1100
aVGWRE
p1101
aVGWW
p1102
aVGXP
p1103
aVH
p1104
aVHA
p1105
aVHAE
p1106
aVHAFC
p1107
aVHAIN
p1108
aVHAL
p1109
aVHALL
p1110
aVHALO
p1111
aVHAR
p1112
aVHAS
p1113
aVHASI
p1114
aVHAWK
p1115
aVHAYN
p1116
aVHBAN
p1117
aVHBCP
p1118
aVHBHC
p1119
aVHBI
p1120
aVHBIO
p1121
aVHBNC
p1122
aVHCA
p1123
aVHCCI
p1124
aVHCI
p1125
aVHCKT
p1126
aVHCN
p1127
aVHCOM
p1128
aVHCP
p1129
aVHCSG
p1130
aVHD
p1131
aVHDNG
p1132
aVHE
p1133
aVHEAT
p1134
aVHEB
p1135
aVHEES
p1136
aVHEI
p1137
aVHELE
p1138
aVHEOP
p1139
aVHES
p1140
aVHF
p1141
aVHFC
p1142
aVHFWA
p1143
aVHGG
p1144
aVHHC
p1145
aVHHS
p1146
aVHI
p1147
aVHIBB
p1148
aVHIFS
p1149
aVHIG
p1150
aVHII
p1151
aVHIIQ
p1152
aVHIL
p1153
aVHIW
p1154
aVHK
p1155
aVHL
p1156
aVHLF
p1157
aVHLIT
p1158
aVHLS
p1159
aVHLT
p1160
aVHLTH
p1161
aVHLX
p1162
aVHMN
p1163
aVHMST
p1164
aVHMSY
p1165
aVHMTV
p1166
aVHNH
p1167
aVHNI
p1168
aVHNR
p1169
aVHNRG
p1170
aVHOFT
p1171
aVHOG
p1172
aVHOLX
p1173
aVHOMB
p1174
aVHOME
p1175
aVHON
p1176
aVHOS
p1177
aVHOV
p1178
aVHP
p1179
aVHPP
p1180
aVHPQ
p1181
aVHPT
p1182
aVHR
p1183
aVHRB
p1184
aVHRC
p1185
aVHRG
p1186
aVHRL
p1187
aVHRS
p1188
aVHRZN
p1189
aVHSC
p1190
aVHSIC
p1191
aVHSII
p1192
aVHSNI
p1193
aVHST
p1194
aVHSTM
p1195
aVHSY
p1196
aVHT
p1197
aVHTA
p1198
aVHTBI
p1199
aVHTBK
p1200
aVHTCO
p1201
aVHTGC
p1202
aVHTH
p1203
aVHTLD
p1204
aVHTLF
p1205
aVHTM
p1206
aVHTZ
p1207
aVHUBG
p1208
aVHUM
p1209
aVHUN
p1210
aVHURC
p1211
aVHURN
p1212
aVHUSA
p1213
aVHVT
p1214
aVHW
p1215
aVHWAY
p1216
aVHWCC
p1217
aVHWKN
p1218
aVHXL
p1219
aVHY
p1220
aVHZNP
p1221
aVHZO
p1222
aVI
p1223
aVIAC
p1224
aVIART
p1225
aVIBKC
p1226
aVIBKR
p1227
aVIBM
p1228
aVIBOC
p1229
aVIBTX
p1230
aVICE
p1231
aVICFI
p1232
aVICON
p1233
aVICPT
p1234
aVICUI
p1235
aVIDA
p1236
aVIDCC
p1237
aVIDRA
p1238
aVIDT
p1239
aVIDTI
p1240
aVIDXX
p1241
aVIESC
p1242
aVIEX
p1243
aVIFF
p1244
aVIGT
p1245
aVIHC
p1246
aVIII
p1247
aVIIIN
p1248
aVIIVI
p1249
aVIL
p1250
aVILMN
p1251
aVIM
p1252
aVIMGN
p1253
aVIMI
p1254
aVIMKTA
p1255
aVIMMR
p1256
aVIMMU
p1257
aVIMN
p1258
aVIMPV
p1259
aVINAP
p1260
aVINCY
p1261
aVINDB
p1262
aVINFI
p1263
aVINFN
p1264
aVINFY
p1265
aVINGR
p1266
aVININ
p1267
aVINN
p1268
aVINOD
p1269
aVINSM
p1270
aVINSY
p1271
aVINT
p1272
aVINTC
p1273
aVINTL
p1274
aVINTU
p1275
aVINTX
p1276
aVINVE
p1277
aVINVN
p1278
aVINWK
p1279
aVIO
p1280
aVIONS
p1281
aVIOSP
p1282
aVIP
p1283
aVIPAR
p1284
aVIPAS
p1285
aVIPCC
p1286
aVIPG
p1287
aVIPGP
p1288
aVIPHI
p1289
aVIPHS
p1290
aVIPI
p1291
aVIPXL
p1292
aVIQNT
p1293
aVIR
p1294
aVIRBT
p1295
aVIRDM
p1296
aVIRET
p1297
aVIRG
p1298
aVIRM
p1299
aVIRWD
p1300
aVISBC
p1301
aVISCA
p1302
aVISIL
p1303
aVISLE
p1304
aVISRG
p1305
aVISRL
p1306
aVISSC
p1307
aVIT
p1308
aVITG
p1309
aVITIC
p1310
aVITRI
p1311
aVITT
p1312
aVITW
p1313
aVIVAC
p1314
aVIVC
p1315
aVIVR
p1316
aVIVZ
p1317
aVIXYS
p1318
aVJACK
p1319
aVJAKK
p1320
aVJAZZ
p1321
aVJBHT
p1322
aVJBL
p1323
aVJBLU
p1324
aVJBSS
p1325
aVJBT
p1326
aVJCI
p1327
aVJCOM
p1328
aVJCP
p1329
aVJCS
p1330
aVJEC
p1331
aVJIVE
p1332
aVJJSF
p1333
aVJKHY
p1334
aVJLL
p1335
aVJMBA
p1336
aVJMP
p1337
aVJNJ
p1338
aVJNPR
p1339
aVJNS
p1340
aVJOE
p1341
aVJOUT
p1342
aVJOY
p1343
aVJPM
p1344
aVJW.A
p1345
aVJWN
p1346
aVK
p1347
aVKAI
p1348
aVKALU
p1349
aVKAMN
p1350
aVKAR
p1351
aVKBH
p1352
aVKBIO
p1353
aVKBR
p1354
aVKCAP
p1355
aVKCG
p1356
aVKCLI
p1357
aVKED
p1358
aVKEG
p1359
aVKELYA
p1360
aVKEM
p1361
aVKERX
p1362
aVKEX
p1363
aVKEY
p1364
aVKEYW
p1365
aVKFFB
p1366
aVKFRC
p1367
aVKFY
p1368
aVKIM
p1369
aVKIRK
p1370
aVKLAC
p1371
aVKLIC
p1372
aVKMB
p1373
aVKMG
p1374
aVKMI
p1375
aVKMPR
p1376
aVKMT
p1377
aVKMX
p1378
aVKND
p1379
aVKNL
p1380
aVKNX
p1381
aVKO
p1382
aVKOP
p1383
aVKOPN
p1384
aVKORS
p1385
aVKOS
p1386
aVKR
p1387
aVKRA
p1388
aVKRC
p1389
aVKRG
p1390
aVKRNY
p1391
aVKRO
p1392
aVKS
p1393
aVKSS
p1394
aVKSU
p1395
aVKTEC
p1396
aVKTOS
p1397
aVKVHI
p1398
aVKW
p1399
aVKWR
p1400
aVL
p1401
aVLABL
p1402
aVLAD
p1403
aVLAMR
p1404
aVLANC
p1405
aVLAWS
p1406
aVLAYN
p1407
aVLAZ
p1408
aVLB
p1409
aVLBAI
p1410
aVLBTYA
p1411
aVLBY
p1412
aVLCI
p1413
aVLCNB
p1414
aVLCUT
p1415
aVLDL
p1416
aVLDR
p1417
aVLEA
p1418
aVLECO
p1419
aVLEE
p1420
aVLEG
p1421
aVLEN
p1422
aVLFUS
p1423
aVLFVN
p1424
aVLGF
p1425
aVLGF.A
p1426
aVLGF.B
p1427
aVLGND
p1428
aVLH
p1429
aVLHCG
p1430
aVLHO
p1431
aVLIFE
p1432
aVLII
p1433
aVLINC
p1434
aVLION
p1435
aVLIOX
p1436
aVLKFN
p1437
aVLKQ
p1438
aVLL
p1439
aVLLEN
p1440
aVLLL
p1441
aVLLNW
p1442
aVLLTC
p1443
aVLLY
p1444
aVLM
p1445
aVLMCA
p1446
aVLMIA
p1447
aVLMNR
p1448
aVLMNX
p1449
aVLMOS
p1450
aVLMT
p1451
aVLNC
p1452
aVLNCE
p1453
aVLNDC
p1454
aVLNG
p1455
aVLNKD
p1456
aVLNN
p1457
aVLNT
p1458
aVLOCK
p1459
aVLOGI
p1460
aVLOGM
p1461
aVLOPE
p1462
aVLORL
p1463
aVLOV
p1464
aVLOW
p1465
aVLPI
p1466
aVLPLA
p1467
aVLPNT
p1468
aVLPSN
p1469
aVLPX
p1470
aVLQDT
p1471
aVLRCX
p1472
aVLRN
p1473
aVLSCC
p1474
aVLSI
p1475
aVLSTR
p1476
aVLTC
p1477
aVLTRE
p1478
aVLTS
p1479
aVLUB
p1480
aVLUK
p1481
aVLULU
p1482
aVLUV
p1483
aVLVLT
p1484
aVLVNTA
p1485
aVLVS
p1486
aVLWAY
p1487
aVLXP
p1488
aVLXRX
p1489
aVLXU
p1490
aVLYB
p1491
aVLYTS
p1492
aVLYV
p1493
aVLZB
p1494
aVM
p1495
aVMA
p1496
aVMAA
p1497
aVMAC
p1498
aVMACK
p1499
aVMAIN
p1500
aVMAN
p1501
aVMANH
p1502
aVMANT
p1503
aVMAR
p1504
aVMAS
p1505
aVMASI
p1506
aVMAT
p1507
aVMATW
p1508
aVMATX
p1509
aVMBFI
p1510
aVMBI
p1511
aVMBLX
p1512
aVMBRG
p1513
aVMBVT
p1514
aVMBWM
p1515
aVMCBC
p1516
aVMCC
p1517
aVMCD
p1518
aVMCF
p1519
aVMCHP
p1520
aVMCHX
p1521
aVMCK
p1522
aVMCO
p1523
aVMCRI
p1524
aVMCS
p1525
aVMCY
p1526
aVMD
p1527
aVMDC
p1528
aVMDCA
p1529
aVMDCO
p1530
aVMDLZ
p1531
aVMDP
p1532
aVMDR
p1533
aVMDRX
p1534
aVMDSO
p1535
aVMDT
p1536
aVMDU
p1537
aVMDXG
p1538
aVMED
p1539
aVMEDH
p1540
aVMEG
p1541
aVMEI
p1542
aVMEIP
p1543
aVMELI
p1544
aVMENT
p1545
aVMERC
p1546
aVMET
p1547
aVMFA
p1548
aVMFCB
p1549
aVMG
p1550
aVMGEE
p1551
aVMGI
p1552
aVMGLN
p1553
aVMGM
p1554
aVMGPI
p1555
aVMGRC
p1556
aVMHGC
p1557
aVMHK
p1558
aVMHLD
p1559
aVMHO
p1560
aVMIDD
p1561
aVMIND
p1562
aVMINI
p1563
aVMITK
p1564
aVMITT
p1565
aVMJN
p1566
aVMKC
p1567
aVMKL
p1568
aVMKSI
p1569
aVMKTX
p1570
aVMLAB
p1571
aVMLHR
p1572
aVMLI
p1573
aVMLM
p1574
aVMLNK
p1575
aVMLP
p1576
aVMLR
p1577
aVMMC
p1578
aVMMI
p1579
aVMMM
p1580
aVMMS
p1581
aVMMSI
p1582
aVMN
p1583
aVMNI
p1584
aVMNKD
p1585
aVMNR
p1586
aVMNRO
p1587
aVMNST
p1588
aVMNTA
p1589
aVMNTX
p1590
aVMO
p1591
aVMOD
p1592
aVMODN
p1593
aVMOFG
p1594
aVMOG.A
p1595
aVMOH
p1596
aVMON
p1597
aVMORN
p1598
aVMOS
p1599
aVMOSY
p1600
aVMOV
p1601
aVMPAA
p1602
aVMPC
p1603
aVMPG
p1604
aVMPO
p1605
aVMPW
p1606
aVMPWR
p1607
aVMPX
p1608
aVMRC
p1609
aVMRCY
p1610
aVMRGE
p1611
aVMRIN
p1612
aVMRK
p1613
aVMRLN
p1614
aVMRO
p1615
aVMRTN
p1616
aVMRVC
p1617
aVMRVL
p1618
aVMS
p1619
aVMSA
p1620
aVMSCC
p1621
aVMSCI
p1622
aVMSEX
p1623
aVMSFG
p1624
aVMSFT
p1625
aVMSG
p1626
aVMSI
p1627
aVMSL
p1628
aVMSM
p1629
aVMSTR
p1630
aVMTB
p1631
aVMTD
p1632
aVMTDR
p1633
aVMTEX
p1634
aVMTG
p1635
aVMTGE
p1636
aVMTH
p1637
aVMTN
p1638
aVMTOR
p1639
aVMTRN
p1640
aVMTRX
p1641
aVMTSC
p1642
aVMTSI
p1643
aVMTW
p1644
aVMTX
p1645
aVMTZ
p1646
aVMU
p1647
aVMUR
p1648
aVMUSA
p1649
aVMVC
p1650
aVMVIS
p1651
aVMWA
p1652
aVMXIM
p1653
aVMXL
p1654
aVMXWL
p1655
aVMYE
p1656
aVMYGN
p1657
aVMYL
p1658
aVMYRG
p1659
aVNANO
p1660
aVNASB
p1661
aVNAT
p1662
aVNATH
p1663
aVNATI
p1664
aVNATR
p1665
aVNAUH
p1666
aVNAV
p1667
aVNAVB
p1668
aVNAVG
p1669
aVNBHC
p1670
aVNBIX
p1671
aVNBL
p1672
aVNBR
p1673
aVNBTB
p1674
aVNC
p1675
aVNCI
p1676
aVNCIT
p1677
aVNCLH
p1678
aVNCMI
p1679
aVNCR
p1680
aVNCS
p1681
aVNCT
p1682
aVNDAQ
p1683
aVNDSN
p1684
aVNE
p1685
aVNECB
p1686
aVNEE
p1687
aVNEM
p1688
aVNEO
p1689
aVNEOG
p1690
aVNEON
p1691
aVNETE
p1692
aVNEU
p1693
aVNEWS
p1694
aVNFBK
p1695
aVNFG
p1696
aVNFLX
p1697
aVNFX
p1698
aVNGS
p1699
aVNGVC
p1700
aVNHC
p1701
aVNHI
p1702
aVNI
p1703
aVNICK
p1704
aVNIHD
p1705
aVNILE
p1706
aVNJR
p1707
aVNKE
p1708
aVNKSH
p1709
aVNKTR
p1710
aVNL
p1711
aVNLNK
p1712
aVNLS
p1713
aVNLSN
p1714
aVNLY
p1715
aVNMFC
p1716
aVNMRX
p1717
aVNNBR
p1718
aVNNI
p1719
aVNNN
p1720
aVNOC
p1721
aVNOG
p1722
aVNOV
p1723
aVNOW
p1724
aVNP
p1725
aVNPK
p1726
aVNPO
p1727
aVNPTN
p1728
aVNR
p1729
aVNRCIA
p1730
aVNRF
p1731
aVNRG
p1732
aVNRIM
p1733
aVNRZ
p1734
aVNSC
p1735
aVNSIT
p1736
aVNSM
p1737
aVNSP
p1738
aVNSR
p1739
aVNTAP
p1740
aVNTCT
p1741
aVNTG
p1742
aVNTGR
p1743
aVNTRI
p1744
aVNTRS
p1745
aVNUAN
p1746
aVNUE
p1747
aVNUS
p1748
aVNUTR
p1749
aVNUVA
p1750
aVNVAX
p1751
aVNVDA
p1752
aVNVEC
p1753
aVNVLS
p1754
aVNVR
p1755
aVNWBI
p1756
aVNWE
p1757
aVNWFL
p1758
aVNWL
p1759
aVNWLI
p1760
aVNWN
p1761
aVNWPX
p1762
aVNWSA
p1763
aVNWY
p1764
aVNX
p1765
aVNXST
p1766
aVNXTM
p1767
aVNYCB
p1768
aVNYMT
p1769
aVNYMX
p1770
aVNYT
p1771
aVO
p1772
aVOAS
p1773
aVOB
p1774
aVOC
p1775
aVOCFC
p1776
aVOCLR
p1777
aVOCN
p1778
aVODC
p1779
aVODFL
p1780
aVODP
p1781
aVOESX
p1782
aVOFC
p1783
aVOFG
p1784
aVOFIX
p1785
aVOFLX
p1786
aVOGE
p1787
aVOGXI
p1788
aVOHI
p1789
aVOI
p1790
aVOII
p1791
aVOIS
p1792
aVOKE
p1793
aVOKSB
p1794
aVOLED
p1795
aVOLN
p1796
aVOLP
p1797
aVOMC
p1798
aVOMCL
p1799
aVOME
p1800
aVOMER
p1801
aVOMEX
p1802
aVOMI
p1803
aVOMN
p1804
aVONB
p1805
aVOPK
p1806
aVOPNT
p1807
aVOPOF
p1808
aVOPY
p1809
aVORA
p1810
aVORBC
p1811
aVORCL
p1812
aVOREX
p1813
aVORI
p1814
aVORIT
p1815
aVORLY
p1816
aVORN
p1817
aVORRF
p1818
aVOSBC
p1819
aVOSG
p1820
aVOSIR
p1821
aVOSIS
p1822
aVOSK
p1823
aVOSTK
p1824
aVOSUR
p1825
aVOTTR
p1826
aVOVAS
p1827
aVOVBC
p1828
aVOXM
p1829
aVOXY
p1830
aVOZRK
p1831
aVP
p1832
aVPACB
p1833
aVPACW
p1834
aVPAG
p1835
aVPANL
p1836
aVPANW
p1837
aVPAR
p1838
aVPARD
p1839
aVPATK
p1840
aVPAY
p1841
aVPAYX
p1842
aVPB
p1843
aVPBCT
p1844
aVPBF
p1845
aVPBH
p1846
aVPBI
p1847
aVPBIB
p1848
aVPBIP
p1849
aVPBYI
p1850
aVPCAR
p1851
aVPCBC
p1852
aVPCBK
p1853
aVPCG
p1854
aVPCH
p1855
aVPCLN
p1856
aVPCO
p1857
aVPCRX
p1858
aVPCTI
p1859
aVPCYO
p1860
aVPDCE
p1861
aVPDCO
p1862
aVPDFS
p1863
aVPDLI
p1864
aVPDM
p1865
aVPEB
p1866
aVPEBO
p1867
aVPEG
p1868
aVPEGA
p1869
aVPEI
p1870
aVPEIX
p1871
aVPENN
p1872
aVPEP
p1873
aVPER
p1874
aVPERY
p1875
aVPES
p1876
aVPESI
p1877
aVPETS
p1878
aVPF
p1879
aVPFBC
p1880
aVPFBX
p1881
aVPFE
p1882
aVPFG
p1883
aVPFLT
p1884
aVPFMT
p1885
aVPFPT
p1886
aVPFS
p1887
aVPFSI
p1888
aVPG
p1889
aVPGC
p1890
aVPGEM
p1891
aVPGNX
p1892
aVPGP
p1893
aVPGR
p1894
aVPGTI
p1895
aVPH
p1896
aVPHH
p1897
aVPHIIK
p1898
aVPHM
p1899
aVPHMD
p1900
aVPHX
p1901
aVPICO
p1902
aVPII
p1903
aVPIP
p1904
aVPIR
p1905
aVPJC
p1906
aVPKD
p1907
aVPKE
p1908
aVPKG
p1909
aVPKI
p1910
aVPKOH
p1911
aVPKY
p1912
aVPLAB
p1913
aVPLCE
p1914
aVPLD
p1915
aVPLOW
p1916
aVPLPC
p1917
aVPLPM
p1918
aVPLT
p1919
aVPLUG
p1920
aVPLUS
p1921
aVPLX
p1922
aVPLXS
p1923
aVPM
p1924
aVPMC
p1925
aVPMT
p1926
aVPNC
p1927
aVPNFP
p1928
aVPNK
p1929
aVPNM
p1930
aVPNNT
p1931
aVPNR
p1932
aVPNRA
p1933
aVPNRG
p1934
aVPNW
p1935
aVPODD
p1936
aVPOL
p1937
aVPOOL
p1938
aVPOR
p1939
aVPOST
p1940
aVPOWI
p1941
aVPOWL
p1942
aVPPBI
p1943
aVPPC
p1944
aVPPG
p1945
aVPPHM
p1946
aVPPL
p1947
aVPPS
p1948
aVPQ
p1949
aVPRA
p1950
aVPRAA
p1951
aVPRFT
p1952
aVPRGO
p1953
aVPRGS
p1954
aVPRGX
p1955
aVPRI
p1956
aVPRIM
p1957
aVPRK
p1958
aVPRKR
p1959
aVPRLB
p1960
aVPRMW
p1961
aVPRO
p1962
aVPROV
p1963
aVPRSC
p1964
aVPRTA
p1965
aVPRTS
p1966
aVPRU
p1967
aVPRXL
p1968
aVPSA
p1969
aVPSB
p1970
aVPSEC
p1971
aVPSIX
p1972
aVPSMT
p1973
aVPSTB
p1974
aVPSX
p1975
aVPSYS
p1976
aVPTC
p1977
aVPTEN
p1978
aVPTIE
p1979
aVPTLA
p1980
aVPTX
p1981
aVPVH
p1982
aVPVTB
p1983
aVPWOD
p1984
aVPWR
p1985
aVPX
p1986
aVPXD
p1987
aVPZG
p1988
aVPZN
p1989
aVPZZA
p1990
aVQ
p1991
aVQADA
p1992
aVQCCO
p1993
aVQCOM
p1994
aVQDEL
p1995
aVQEP
p1996
aVQGEN
p1997
aVQLYS
p1998
aVQNST
p1999
aVQSII
p2000
aVQTM
p2001
aVQUAD
p2002
aVR
p2003
aVRA
p2004
aVRAD
p2005
aVRAI
p2006
aVRAIL
p2007
aVRAS
p2008
aVRATE
p2009
aVRAVN
p2010
aVRBC
p2011
aVRBCAA
p2012
aVRBCN
p2013
aVRCII
p2014
aVRCL
p2015
aVRDC
p2016
aVRDI
p2017
aVRDN
p2018
aVRDNT
p2019
aVRE
p2020
aVRECN
p2021
aVREG
p2022
aVREGI
p2023
aVREGN
p2024
aVREIS
p2025
aVRELL
p2026
aVREN
p2027
aVRES
p2028
aVRESI
p2029
aVREV
p2030
aVREX
p2031
aVREXX
p2032
aVRF
p2033
aVRFP
p2034
aVRGA
p2035
aVRGC
p2036
aVRGEN
p2037
aVRGLD
p2038
aVRGLS
p2039
aVRGR
p2040
aVRGS
p2041
aVRH
p2042
aVRHI
p2043
aVRHP
p2044
aVRHT
p2045
aVRICK
p2046
aVRIG
p2047
aVRIGL
p2048
aVRJF
p2049
aVRL
p2050
aVRLGY
p2051
aVRLH
p2052
aVRLI
p2053
aVRLJ
p2054
aVRM
p2055
aVRMBS
p2056
aVRMD
p2057
aVRMTI
p2058
aVRNET
p2059
aVRNN
p2060
aVRNR
p2061
aVRNST
p2062
aVRNWK
p2063
aVROCK
p2064
aVROG
p2065
aVROIC
p2066
aVROK
p2067
aVROL
p2068
aVROLL
p2069
aVROP
p2070
aVROST
p2071
aVRP
p2072
aVRPAI
p2073
aVRPM
p2074
aVRPRX
p2075
aVRPT
p2076
aVRPXC
p2077
aVRRC
p2078
aVRRD
p2079
aVRRGB
p2080
aVRRR
p2081
aVRRTS
p2082
aVRS
p2083
aVRSG
p2084
aVRSO
p2085
aVRST
p2086
aVRSYS
p2087
aVRT
p2088
aVRTEC
p2089
aVRTIX
p2090
aVRTK
p2091
aVRTN
p2092
aVRUSHA
p2093
aVRUTH
p2094
aVRVLT
p2095
aVRWT
p2096
aVRXN
p2097
aVRYAAY
p2098
aVRYN
p2099
aVS
p2100
aVSAFM
p2101
aVSAFT
p2102
aVSAH
p2103
aVSAIA
p2104
aVSALM
p2105
aVSAM
p2106
aVSANM
p2107
aVSASR
p2108
aVSATS
p2109
aVSAVE
p2110
aVSBAC
p2111
aVSBCF
p2112
aVSBGI
p2113
aVSBH
p2114
aVSBNY
p2115
aVSBRA
p2116
aVSBSI
p2117
aVSBUX
p2118
aVSBY
p2119
aVSCCO
p2120
aVSCG
p2121
aVSCHL
p2122
aVSCHN
p2123
aVSCHS
p2124
aVSCHW
p2125
aVSCI
p2126
aVSCL
p2127
aVSCLN
p2128
aVSCM
p2129
aVSCMP
p2130
aVSCOR
p2131
aVSCS
p2132
aVSCSC
p2133
aVSCSS
p2134
aVSCVL
p2135
aVSD
p2136
aVSDRL
p2137
aVSE
p2138
aVSEAC
p2139
aVSEAS
p2140
aVSEB
p2141
aVSEE
p2142
aVSEIC
p2143
aVSEM
p2144
aVSEMG
p2145
aVSENEA
p2146
aVSF
p2147
aVSFE
p2148
aVSFL
p2149
aVSFLY
p2150
aVSFNC
p2151
aVSGA
p2152
aVSGEN
p2153
aVSGMO
p2154
aVSGMS
p2155
aVSGY
p2156
aVSGYP
p2157
aVSHBI
p2158
aVSHEN
p2159
aVSHLD
p2160
aVSHLM
p2161
aVSHLO
p2162
aVSHO
p2163
aVSHOO
p2164
aVSHOR
p2165
aVSHOS
p2166
aVSHW
p2167
aVSIG
p2168
aVSIGA
p2169
aVSIGI
p2170
aVSIGM
p2171
aVSIL
p2172
aVSIR
p2173
aVSIRI
p2174
aVSIVB
p2175
aVSIX
p2176
aVSJI
p2177
aVSJM
p2178
aVSJW
p2179
aVSKT
p2180
aVSKX
p2181
aVSKY
p2182
aVSKYW
p2183
aVSLAB
p2184
aVSLB
p2185
aVSLCA
p2186
aVSLG
p2187
aVSLGN
p2188
aVSLM
p2189
aVSLRC
p2190
aVSM
p2191
aVSMCI
p2192
aVSMG
p2193
aVSMP
p2194
aVSMRT
p2195
aVSMSI
p2196
aVSMTC
p2197
aVSN
p2198
aVSNA
p2199
aVSNAK
p2200
aVSNBC
p2201
aVSNCR
p2202
aVSNH
p2203
aVSNHY
p2204
aVSNI
p2205
aVSNMX
p2206
aVSNPS
p2207
aVSNSS
p2208
aVSNV
p2209
aVSNX
p2210
aVSO
p2211
aVSOHU
p2212
aVSON
p2213
aVSONC
p2214
aVSONS
p2215
aVSPA
p2216
aVSPAR
p2217
aVSPB
p2218
aVSPEC
p2219
aVSPG
p2220
aVSPLK
p2221
aVSPLS
p2222
aVSPN
p2223
aVSPNC
p2224
aVSPNS
p2225
aVSPPI
p2226
aVSPR
p2227
aVSPRT
p2228
aVSPSC
p2229
aVSPTN
p2230
aVSPWR
p2231
aVSR
p2232
aVSRC
p2233
aVSRCE
p2234
aVSRCL
p2235
aVSRDX
p2236
aVSRE
p2237
aVSREV
p2238
aVSRI
p2239
aVSRPT
p2240
aVSRT
p2241
aVSSD
p2242
aVSSI
p2243
aVSSNC
p2244
aVSSNI
p2245
aVSSP
p2246
aVSSTK
p2247
aVSSYS
p2248
aVSTAA
p2249
aVSTAG
p2250
aVSTAR
p2251
aVSTBA
p2252
aVSTBZ
p2253
aVSTC
p2254
aVSTE
p2255
aVSTFC
p2256
aVSTI
p2257
aVSTJ
p2258
aVSTL
p2259
aVSTLD
p2260
aVSTLY
p2261
aVSTML
p2262
aVSTMP
p2263
aVSTNG
p2264
aVSTRA
p2265
aVSTRI
p2266
aVSTRL
p2267
aVSTRS
p2268
aVSTRZA
p2269
aVSTT
p2270
aVSTWD
p2271
aVSTX
p2272
aVSTXS
p2273
aVSTZ
p2274
aVSUI
p2275
aVSUMR
p2276
aVSUN
p2277
aVSUNS
p2278
aVSUP
p2279
aVSUPN
p2280
aVSVNT
p2281
aVSVU
p2282
aVSVVC
p2283
aVSWC
p2284
aVSWFT
p2285
aVSWHC
p2286
aVSWK
p2287
aVSWKS
p2288
aVSWM
p2289
aVSWN
p2290
aVSWX
p2291
aVSXC
p2292
aVSXE
p2293
aVSXI
p2294
aVSXT
p2295
aVSYBT
p2296
aVSYK
p2297
aVSYKE
p2298
aVSYMC
p2299
aVSYMX
p2300
aVSYNA
p2301
aVSYNT
p2302
aVSYRG
p2303
aVSYUT
p2304
aVSYX
p2305
aVSYY
p2306
aVT
p2307
aVTAHO
p2308
aVTAL
p2309
aVTAP
p2310
aVTASR
p2311
aVTAST
p2312
aVTAX
p2313
aVTBBK
p2314
aVTBI
p2315
aVTBNK
p2316
aVTCAP
p2317
aVTCB
p2318
aVTCBI
p2319
aVTCBK
p2320
aVTCI
p2321
aVTCO
p2322
aVTCPC
p2323
aVTCRD
p2324
aVTDC
p2325
aVTDG
p2326
aVTDS
p2327
aVTDW
p2328
aVTDY
p2329
aVTEAR
p2330
aVTECD
p2331
aVTECH
p2332
aVTEL
p2333
aVTEN
p2334
aVTER
p2335
aVTESO
p2336
aVTESS
p2337
aVTEVA
p2338
aVTEX
p2339
aVTFSL
p2340
aVTFX
p2341
aVTG
p2342
aVTGH
p2343
aVTGI
p2344
aVTGNA
p2345
aVTGT
p2346
aVTGTX
p2347
aVTHC
p2348
aVTHFF
p2349
aVTHG
p2350
aVTHLD
p2351
aVTHO
p2352
aVTHR
p2353
aVTHRM
p2354
aVTHS
p2355
aVTICC
p2356
aVTIER
p2357
aVTIF
p2358
aVTILE
p2359
aVTINY
p2360
aVTIS
p2361
aVTISI
p2362
aVTITN
p2363
aVTIVO
p2364
aVTJX
p2365
aVTK
p2366
aVTKR
p2367
aVTLYS
p2368
aVTMH
p2369
aVTMHC
p2370
aVTMK
p2371
aVTMO
p2372
aVTMP
p2373
aVTMUS
p2374
aVTNAV
p2375
aVTNC
p2376
aVTNDM
p2377
aVTNGO
p2378
aVTNK
p2379
aVTOL
p2380
aVTOWN
p2381
aVTOWR
p2382
aVTPC
p2383
aVTPH
p2384
aVTPLM
p2385
aVTPX
p2386
aVTR
p2387
aVTRC
p2388
aVTREE
p2389
aVTREX
p2390
aVTRGP
p2391
aVTRI
p2392
aVTRIP
p2393
aVTRK
p2394
aVTRMB
p2395
aVTRMK
p2396
aVTRN
p2397
aVTRNO
p2398
aVTROW
p2399
aVTRR
p2400
aVTRS
p2401
aVTRST
p2402
aVTRV
p2403
aVTSC
p2404
aVTSCO
p2405
aVTSLA
p2406
aVTSN
p2407
aVTSO
p2408
aVTSRA
p2409
aVTSRO
p2410
aVTSS
p2411
aVTTC
p2412
aVTTEC
p2413
aVTTEK
p2414
aVTTGT
p2415
aVTTI
p2416
aVTTMI
p2417
aVTTPH
p2418
aVTTS
p2419
aVTTWO
p2420
aVTUES
p2421
aVTUP
p2422
aVTWER
p2423
aVTWI
p2424
aVTWIN
p2425
aVTWMC
p2426
aVTWO
p2427
aVTWX
p2428
aVTXMD
p2429
aVTXN
p2430
aVTXRH
p2431
aVTXT
p2432
aVTYL
p2433
aVTYPE
p2434
aVTZOO
p2435
aVUA
p2436
aVUAL
p2437
aVUAM
p2438
aVUBA
p2439
aVUBFO
p2440
aVUBNK
p2441
aVUBNT
p2442
aVUBSH
p2443
aVUBSI
p2444
aVUCBI
p2445
aVUCFC
p2446
aVUCTT
p2447
aVUDR
p2448
aVUEC
p2449
aVUEIC
p2450
aVUEPS
p2451
aVUFCS
p2452
aVUFI
p2453
aVUFPI
p2454
aVUFPT
p2455
aVUFS
p2456
aVUGI
p2457
aVUHAL
p2458
aVUHS
p2459
aVUHT
p2460
aVUIS
p2461
aVULBI
p2462
aVULTA
p2463
aVULTI
p2464
aVULTR
p2465
aVUMBF
p2466
aVUMH
p2467
aVUMPQ
p2468
aVUNF
p2469
aVUNFI
p2470
aVUNH
p2471
aVUNIS
p2472
aVUNM
p2473
aVUNP
p2474
aVUNT
p2475
aVUNXL
p2476
aVUPS
p2477
aVURBN
p2478
aVURG
p2479
aVURI
p2480
aVURRE
p2481
aVUSAK
p2482
aVUSAP
p2483
aVUSB
p2484
aVUSCR
p2485
aVUSEG
p2486
aVUSG
p2487
aVUSLM
p2488
aVUSM
p2489
aVUSNA
p2490
aVUSPH
p2491
aVUST
p2492
aVUTEK
p2493
aVUTHR
p2494
aVUTI
p2495
aVUTL
p2496
aVUTMD
p2497
aVUTSI
p2498
aVUTX
p2499
aVUVE
p2500
aVUVSP
p2501
aVUVV
p2502
aVV
p2503
aVVAC
p2504
aVVAL
p2505
aVVALU
p2506
aVVAR
p2507
aVVASC
p2508
aVVC
p2509
aVVCRA
p2510
aVVDSI
p2511
aVVECO
p2512
aVVFC
p2513
aVVG
p2514
aVVGR
p2515
aVVGZ
p2516
aVVHC
p2517
aVVHI
p2518
aVVIAB
p2519
aVVIAV
p2520
aVVICL
p2521
aVVICR
p2522
aVVIVO
p2523
aVVLGEA
p2524
aVVLO
p2525
aVVLY
p2526
aVVMC
p2527
aVVMI
p2528
aVVMW
p2529
aVVNDA
p2530
aVVNO
p2531
aVVNTV
p2532
aVVOD
p2533
aVVOXX
p2534
aVVOYA
p2535
aVVPG
p2536
aVVR
p2537
aVVRA
p2538
aVVRNT
p2539
aVVRS
p2540
aVVRSK
p2541
aVVRSN
p2542
aVVRTS
p2543
aVVRTU
p2544
aVVRTX
p2545
aVVRX
p2546
aVVSAT
p2547
aVVSEC
p2548
aVVSH
p2549
aVVSI
p2550
aVVSTM
p2551
aVVTR
p2552
aVVVC
p2553
aVVVI
p2554
aVVVUS
p2555
aVVZ
p2556
aVWAB
p2557
aVWABC
p2558
aVWAC
p2559
aVWAFD
p2560
aVWAGE
p2561
aVWAIR
p2562
aVWAL
p2563
aVWASH
p2564
aVWAT
p2565
aVWB
p2566
aVWBA
p2567
aVWBC
p2568
aVWBMD
p2569
aVWBS
p2570
aVWCC
p2571
aVWCG
p2572
aVWCN
p2573
aVWD
p2574
aVWDAY
p2575
aVWDC
p2576
aVWDFC
p2577
aVWDR
p2578
aVWEC
p2579
aVWEN
p2580
aVWERN
p2581
aVWETF
p2582
aVWEX
p2583
aVWEYS
p2584
aVWFC
p2585
aVWFM
p2586
aVWFT
p2587
aVWG
p2588
aVWGL
p2589
aVWGO
p2590
aVWHF
p2591
aVWHG
p2592
aVWHR
p2593
aVWIFI
p2594
aVWIN
p2595
aVWINA
p2596
aVWIRE
p2597
aVWLB
p2598
aVWLFC
p2599
aVWLH
p2600
aVWLK
p2601
aVWLL
p2602
aVWM
p2603
aVWMAR
p2604
aVWMB
p2605
aVWMC
p2606
aVWMGI
p2607
aVWMK
p2608
aVWMS
p2609
aVWMT
p2610
aVWNC
p2611
aVWNR
p2612
aVWOOF
p2613
aVWOR
p2614
aVWPC
p2615
aVWPX
p2616
aVWR
p2617
aVWRB
p2618
aVWRE
p2619
aVWRI
p2620
aVWRLD
p2621
aVWSBC
p2622
aVWSBF
p2623
aVWSFS
p2624
aVWSM
p2625
aVWSO
p2626
aVWSR
p2627
aVWST
p2628
aVWSTC
p2629
aVWSTL
p2630
aVWTBA
p2631
aVWTFC
p2632
aVWTI
p2633
aVWTM
p2634
aVWTR
p2635
aVWTS
p2636
aVWTW
p2637
aVWU
p2638
aVWWAV
p2639
aVWWD
p2640
aVWWE
p2641
aVWWW
p2642
aVWY
p2643
aVWYN
p2644
aVWYNN
p2645
aVX
p2646
aVXCO
p2647
aVXEC
p2648
aVXEL
p2649
aVXL
p2650
aVXLNX
p2651
aVXOM
p2652
aVXOMA
p2653
aVXONE
p2654
aVXOXO
p2655
aVXPO
p2656
aVXRAY
p2657
aVXRM
p2658
aVXRX
p2659
aVXXIA
p2660
aVXYL
p2661
aVY
p2662
aVYDKN
p2663
aVYELP
p2664
aVYHOO
p2665
aVYORW
p2666
aVYRCW
p2667
aVYUM
p2668
aVZ
p2669
aVZAGG
p2670
aVZAZA
p2671
aVZBH
p2672
aVZBRA
p2673
aVZEUS
p2674
aVZGNX
p2675
aVZION
p2676
aVZIOP
p2677
aVZIXI
p2678
aVZLTQ
p2679
aVZN
p2680
aVZNGA
p2681
aVZTS
p2682
aVZUMZ
p2683
a.